; Function Attrs: mustprogress uwtable
define hidden noundef zeroext i1 @_ZN3sat8parallel11copy_solverERNS_6solverE(ptr noundef nonnull align 8 dereferenceable(176) %this, ptr noundef nonnull align 8 dereferenceable(4408) %s) local_unnamed_addr #4 align 2 personality ptr @__gxx_personality_v0 {
entry:
  %m_mux = getelementptr inbounds i8, ptr %this, i64 72
  %call1.i.i.i = tail call noundef i32 @pthread_mutex_lock(ptr noundef nonnull %m_mux) #18
  %tobool.not.i.i = icmp eq i32 %call1.i.i.i, 0
  br i1 %tobool.not.i.i, label %_ZNSt10lock_guardISt5mutexEC2ERS0_.exit, label %if.then.i.i

if.then.i.i:                                      ; preds = %entry
  tail call void @_ZSt20__throw_system_errori(i32 noundef %call1.i.i.i) #20
  unreachable

_ZNSt10lock_guardISt5mutexEC2ERS0_.exit:          ; preds = %entry
  %m_consumer_ready = getelementptr inbounds i8, ptr %this, i64 128
  store i8 1, ptr %m_consumer_ready, align 8
  %m_solver_copy = getelementptr inbounds i8, ptr %this, i64 120
  %0 = load ptr, ptr %m_solver_copy, align 8
  %cmp.i.not = icmp eq ptr %0, null
  br i1 %cmp.i.not, label %if.end, label %land.lhs.true

land.lhs.true:                                    ; preds = %_ZNSt10lock_guardISt5mutexEC2ERS0_.exit
  %m_clauses = getelementptr inbounds i8, ptr %s, i64 3376
  %1 = load ptr, ptr %m_clauses, align 8
  %cmp.i3 = icmp eq ptr %1, null
  br i1 %cmp.i3, label %_ZNK6vectorIPN3sat6clauseELb0EjE4sizeEv.exit, label %if.end.i

if.end.i:                                         ; preds = %land.lhs.true
  %arrayidx.i = getelementptr inbounds i8, ptr %1, i64 -4
  %2 = load i32, ptr %arrayidx.i, align 4
  br label %_ZNK6vectorIPN3sat6clauseELb0EjE4sizeEv.exit

_ZNK6vectorIPN3sat6clauseELb0EjE4sizeEv.exit:     ; preds = %land.lhs.true, %if.end.i
  %retval.0.i = phi i32 [ %2, %if.end.i ], [ 0, %land.lhs.true ]
  %m_clauses7 = getelementptr inbounds i8, ptr %0, i64 3376
  %3 = load ptr, ptr %m_clauses7, align 8
  %cmp.i4 = icmp eq ptr %3, null
  br i1 %cmp.i4, label %_ZNK6vectorIPN3sat6clauseELb0EjE4sizeEv.exit8, label %if.end.i5

if.end.i5:                                        ; preds = %_ZNK6vectorIPN3sat6clauseELb0EjE4sizeEv.exit
  %arrayidx.i6 = getelementptr inbounds i8, ptr %3, i64 -4
  %4 = load i32, ptr %arrayidx.i6, align 4
  br label %_ZNK6vectorIPN3sat6clauseELb0EjE4sizeEv.exit8

_ZNK6vectorIPN3sat6clauseELb0EjE4sizeEv.exit8:    ; preds = %_ZNK6vectorIPN3sat6clauseELb0EjE4sizeEv.exit, %if.end.i5
  %retval.0.i7 = phi i32 [ %4, %if.end.i5 ], [ 0, %_ZNK6vectorIPN3sat6clauseELb0EjE4sizeEv.exit ]
  %cmp = icmp ugt i32 %retval.0.i, %retval.0.i7
  br i1 %cmp, label %if.then, label %if.end

if.then:                                          ; preds = %_ZNK6vectorIPN3sat6clauseELb0EjE4sizeEv.exit8
  invoke void @_ZN3sat6solver4copyERKS0_b(ptr noundef nonnull align 8 dereferenceable(4408) %s, ptr noundef nonnull align 8 dereferenceable(4408) %0, i1 noundef zeroext true)
          to label %invoke.cont13 unwind label %lpad

invoke.cont13:                                    ; preds = %if.then
  %5 = load ptr, ptr %m_clauses, align 8
  %cmp.i9 = icmp eq ptr %5, null
  br i1 %cmp.i9, label %_ZNK6vectorIPN3sat6clauseELb0EjE4sizeEv.exit13, label %if.end.i10

if.end.i10:                                       ; preds = %invoke.cont13
  %arrayidx.i11 = getelementptr inbounds i8, ptr %5, i64 -4
  %6 = load i32, ptr %arrayidx.i11, align 4
  br label %_ZNK6vectorIPN3sat6clauseELb0EjE4sizeEv.exit13

_ZNK6vectorIPN3sat6clauseELb0EjE4sizeEv.exit13:   ; preds = %invoke.cont13, %if.end.i10
  %retval.0.i12 = phi i32 [ %6, %if.end.i10 ], [ 0, %invoke.cont13 ]
  %m_num_clauses = getelementptr inbounds i8, ptr %this, i64 112
  store i32 %retval.0.i12, ptr %m_num_clauses, align 8
  br label %if.end

lpad:                                             ; preds = %if.then
  %7 = landingpad { ptr, i32 }
          cleanup
  %call1.i.i.i14 = tail call noundef i32 @pthread_mutex_unlock(ptr noundef nonnull %m_mux) #18
  resume { ptr, i32 } %7

if.end:                                           ; preds = %_ZNK6vectorIPN3sat6clauseELb0EjE4sizeEv.exit13, %_ZNK6vectorIPN3sat6clauseELb0EjE4sizeEv.exit8, %_ZNSt10lock_guardISt5mutexEC2ERS0_.exit
  %copied.0 = phi i1 [ true, %_ZNK6vectorIPN3sat6clauseELb0EjE4sizeEv.exit13 ], [ false, %_ZNK6vectorIPN3sat6clauseELb0EjE4sizeEv.exit8 ], [ false, %_ZNSt10lock_guardISt5mutexEC2ERS0_.exit ]
  %call1.i.i.i15 = tail call noundef i32 @pthread_mutex_unlock(ptr noundef nonnull %m_mux) #18
  ret i1 %copied.0
}